; Function Attrs: mustprogress uwtable
define void @_ZN4cvc56parser11ParserState27mkUnresolvedTypeConstructorERKNSt7__cxx1112basic_stringIcSt11char_traitsIcESaIcEEEm(ptr noalias sret(%"class.cvc5::Sort") align 8 %agg.result, ptr nocapture noundef nonnull readonly align 8 dereferenceable(168) %this, ptr noundef nonnull align 8 dereferenceable(32) %name, i64 noundef %arity) local_unnamed_addr #3 align 2 personality ptr @__gxx_personality_v0 {
entry:
  %agg.tmp.i = alloca %"class.cvc5::Sort", align 16
  %ref.tmp = alloca %"class.std::vector.95", align 8
  %ref.tmp2 = alloca %"class.std::allocator.97", align 1
  %d_solver = getelementptr inbounds i8, ptr %this, i64 8
  %0 = load ptr, ptr %d_solver, align 8
  tail call void @_ZNK4cvc56Solver24mkUnresolvedDatatypeSortERKNSt7__cxx1112basic_stringIcSt11char_traitsIcESaIcEEEm(ptr sret(%"class.cvc5::Sort") align 8 %agg.result, ptr noundef nonnull align 8 dereferenceable(40) %0, ptr noundef nonnull align 8 dereferenceable(32) %name, i64 noundef %arity)
  invoke void @_ZNSt6vectorIN4cvc54SortESaIS1_EEC2EmRKS2_(ptr noundef nonnull align 8 dereferenceable(24) %ref.tmp, i64 noundef %arity, ptr noundef nonnull align 1 dereferenceable(1) %ref.tmp2)
          to label %invoke.cont unwind label %lpad

invoke.cont:                                      ; preds = %entry
  call void @llvm.lifetime.start.p0(i64 24, ptr nonnull %agg.tmp.i)
  %d_symtab.i = getelementptr inbounds i8, ptr %this, i64 32
  %1 = load ptr, ptr %d_symtab.i, align 8
  %2 = load <2 x ptr>, ptr %agg.result, align 8
  store <2 x ptr> %2, ptr %agg.tmp.i, align 16
  %_M_refcount.i.i.i.i = getelementptr inbounds i8, ptr %agg.tmp.i, i64 16
  %_M_refcount3.i.i.i.i = getelementptr inbounds i8, ptr %agg.result, i64 16
  %3 = load ptr, ptr %_M_refcount3.i.i.i.i, align 8
  store ptr %3, ptr %_M_refcount.i.i.i.i, align 16
  %cmp.not.i.i.i.i.i = icmp eq ptr %3, null
  br i1 %cmp.not.i.i.i.i.i, label %_ZN4cvc54SortC2ERKS0_.exit.i, label %if.then.i.i.i.i.i

if.then.i.i.i.i.i:                                ; preds = %invoke.cont
  %_M_use_count.i.i.i.i.i.i = getelementptr inbounds i8, ptr %3, i64 8
  %4 = load i8, ptr @__libc_single_threaded, align 1
  %tobool.i.not.i.i.i.i.i.i = icmp eq i8 %4, 0
  br i1 %tobool.i.not.i.i.i.i.i.i, label %if.else.i.i.i.i.i.i.i, label %if.then.i.i.i.i.i.i.i

if.then.i.i.i.i.i.i.i:                            ; preds = %if.then.i.i.i.i.i
  %5 = load i32, ptr %_M_use_count.i.i.i.i.i.i, align 4
  %add.i.i.i.i.i.i.i = add nsw i32 %5, 1
  store i32 %add.i.i.i.i.i.i.i, ptr %_M_use_count.i.i.i.i.i.i, align 4
  br label %_ZN4cvc54SortC2ERKS0_.exit.i

if.else.i.i.i.i.i.i.i:                            ; preds = %if.then.i.i.i.i.i
  %6 = atomicrmw volatile add ptr %_M_use_count.i.i.i.i.i.i, i32 1 acq_rel, align 4
  br label %_ZN4cvc54SortC2ERKS0_.exit.i

_ZN4cvc54SortC2ERKS0_.exit.i:                     ; preds = %if.else.i.i.i.i.i.i.i, %if.then.i.i.i.i.i.i.i, %invoke.cont
  invoke void @_ZN4cvc58internal6parser11SymbolTable8bindTypeERKNSt7__cxx1112basic_stringIcSt11char_traitsIcESaIcEEERKSt6vectorINS_4SortESaISC_EESC_(ptr noundef nonnull align 8 dereferenceable(8) %1, ptr noundef nonnull align 8 dereferenceable(32) %name, ptr noundef nonnull align 8 dereferenceable(24) %ref.tmp, ptr noundef nonnull %agg.tmp.i)
          to label %invoke.cont4 unwind label %lpad.i

lpad.i:                                           ; preds = %_ZN4cvc54SortC2ERKS0_.exit.i
  %7 = landingpad { ptr, i32 }
          cleanup
  call void @_ZN4cvc54SortD1Ev(ptr noundef nonnull align 8 dereferenceable(24) %agg.tmp.i) #23
  call void @_ZNSt6vectorIN4cvc54SortESaIS1_EED2Ev(ptr noundef nonnull align 8 dereferenceable(24) %ref.tmp) #23
  br label %ehcleanup

invoke.cont4:                                     ; preds = %_ZN4cvc54SortC2ERKS0_.exit.i
  call void @_ZN4cvc54SortD1Ev(ptr noundef nonnull align 8 dereferenceable(24) %agg.tmp.i) #23
  call void @llvm.lifetime.end.p0(i64 24, ptr nonnull %agg.tmp.i)
  %8 = load ptr, ptr %ref.tmp, align 8
  %_M_finish.i = getelementptr inbounds i8, ptr %ref.tmp, i64 8
  %9 = load ptr, ptr %_M_finish.i, align 8
  %cmp.not3.i.i.i.i = icmp eq ptr %8, %9
  br i1 %cmp.not3.i.i.i.i, label %invoke.cont.i, label %for.body.i.i.i.i

for.body.i.i.i.i:                                 ; preds = %invoke.cont4, %for.body.i.i.i.i
  %__first.addr.04.i.i.i.i = phi ptr [ %incdec.ptr.i.i.i.i, %for.body.i.i.i.i ], [ %8, %invoke.cont4 ]
  call void @_ZN4cvc54SortD1Ev(ptr noundef nonnull align 8 dereferenceable(24) %__first.addr.04.i.i.i.i) #23
  %incdec.ptr.i.i.i.i = getelementptr inbounds i8, ptr %__first.addr.04.i.i.i.i, i64 24
  %cmp.not.i.i.i.i = icmp eq ptr %incdec.ptr.i.i.i.i, %9
  br i1 %cmp.not.i.i.i.i, label %invoke.contthread-pre-split.i, label %for.body.i.i.i.i, !llvm.loop !18

invoke.contthread-pre-split.i:                    ; preds = %for.body.i.i.i.i
  %.pr.i = load ptr, ptr %ref.tmp, align 8
  br label %invoke.cont.i

invoke.cont.i:                                    ; preds = %invoke.contthread-pre-split.i, %invoke.cont4
  %10 = phi ptr [ %.pr.i, %invoke.contthread-pre-split.i ], [ %8, %invoke.cont4 ]
  %tobool.not.i.i.i = icmp eq ptr %10, null
  br i1 %tobool.not.i.i.i, label %_ZNSt6vectorIN4cvc54SortESaIS1_EED2Ev.exit, label %if.then.i.i.i

if.then.i.i.i:                                    ; preds = %invoke.cont.i
  call void @_ZdlPv(ptr noundef nonnull %10) #24
  br label %_ZNSt6vectorIN4cvc54SortESaIS1_EED2Ev.exit

_ZNSt6vectorIN4cvc54SortESaIS1_EED2Ev.exit:       ; preds = %invoke.cont.i, %if.then.i.i.i
  ret void

lpad:                                             ; preds = %entry
  %11 = landingpad { ptr, i32 }
          cleanup
  br label %ehcleanup

ehcleanup:                                        ; preds = %lpad.i, %lpad
  %.pn = phi { ptr, i32 } [ %7, %lpad.i ], [ %11, %lpad ]
  call void @_ZN4cvc54SortD1Ev(ptr noundef nonnull align 8 dereferenceable(24) %agg.result) #23
  resume { ptr, i32 } %.pn
}